	.cpu cortex-m4
	.eabi_attribute 27, 1
	.eabi_attribute 28, 1
	.eabi_attribute 20, 1
	.eabi_attribute 21, 1
	.eabi_attribute 23, 3
	.eabi_attribute 24, 1
	.eabi_attribute 25, 1
	.eabi_attribute 26, 1
	.eabi_attribute 30, 2
	.eabi_attribute 34, 1
	.eabi_attribute 18, 4
	.file	"main.c"
	.text
.Ltext0:
	.cfi_sections	.debug_frame
	.section	.text.startup,"ax",%progbits
	.align	1
	.p2align 2,,3
	.global	main
	.syntax unified
	.thumb
	.thumb_func
	.fpu fpv4-sp-d16
	.type	main, %function
main:
.LFB113:
	.file 1 "main.c"
	.loc 1 9 0
	.cfi_startproc
	@ args = 0, pretend = 0, frame = 0
	@ frame_needed = 0, uses_anonymous_args = 0
	push	{r3, r4, r5, r6, r7, lr}
	.cfi_def_cfa_offset 24
	.cfi_offset 3, -24
	.cfi_offset 4, -20
	.cfi_offset 5, -16
	.cfi_offset 6, -12
	.cfi_offset 7, -8
	.cfi_offset 14, -4
	.loc 1 11 0
	movs	r0, #45
	bl	initUSART2
.LVL0:
	.loc 1 12 0
	bl	initDMA
.LVL1:
	.loc 1 13 0
	bl	enIrqUSART2
.LVL2:
	.loc 1 46 0
	ldr	r2, .L25
	.loc 1 47 0
	ldr	r7, .L25+4
	.loc 1 46 0
	ldr	r3, [r2, #48]
	orr	r3, r3, #1
	str	r3, [r2, #48]
	.loc 1 47 0
	ldr	r3, [r7]
	bic	r3, r3, #1
	str	r3, [r7]
	.loc 1 48 0
	mov	r3, #-1
	ldr	r2, [r7, #8]
	str	r3, [r7, #8]
	.loc 1 49 0
	ldr	r3, [r7, #4]
	str	r3, [r7, #4]
.LVL3:
	.loc 1 53 0
	ldr	r2, [r7, #16]
	.loc 1 52 0
	movs	r4, #0
	.loc 1 53 0
	and	r2, r2, #1
.LVL4:
	b	.L2
.LVL5:
.L21:
.LBB2:
	.loc 1 57 0 discriminator 1
	cbnz	r2, .L3
	.loc 1 59 0
	cbz	r6, .L4
	.loc 1 65 0
	mov	r6, r2
.LVL6:
.L5:
	.loc 1 87 0
	cmp	r4, #3
	it	cs
	movcs	r4, #0
.LVL7:
	.loc 1 56 0
	mov	r2, r5
.L2:
.LVL8:
	ldr	r5, [r7, #16]
.LVL9:
	.loc 1 57 0
	ands	r5, r5, #1
.LVL10:
	bne	.L21
.L3:
.LVL11:
	.loc 1 72 0
	cmp	r6, #1
	bne	.L5
.LVL12:
.L4:
	.loc 1 73 0
	cbz	r4, .L22
	.loc 1 76 0
	cmp	r4, #1
	beq	.L23
	.loc 1 79 0
	cmp	r4, #2
	beq	.L24
.L7:
	.loc 1 83 0
	adds	r4, r4, #1
.LVL13:
	uxtb	r4, r4
.LVL14:
	movs	r6, #1
.LVL15:
	b	.L5
.LVL16:
.L22:
	.loc 1 74 0
	movs	r0, #255
	bl	numberZero
.LVL17:
	.loc 1 75 0
	bl	start
.LVL18:
	b	.L7
.L23:
	.loc 1 77 0
	movs	r0, #255
	bl	numberOne
.LVL19:
	.loc 1 78 0
	bl	start
.LVL20:
	b	.L7
.L24:
	.loc 1 80 0
	movs	r0, #255
	bl	numberTwo
.LVL21:
	.loc 1 81 0
	bl	start
.LVL22:
	b	.L7
.L26:
	.align	2
.L25:
	.word	1073887232
	.word	1073872896
.LBE2:
	.cfi_endproc
.LFE113:
	.size	main, .-main
	.text
.Letext0:
	.file 2 "/home/pinky/msut/gcc-arm-none-eabi/arm-none-eabi/include/machine/_default_types.h"
	.file 3 "/home/pinky/msut/gcc-arm-none-eabi/arm-none-eabi/include/sys/_stdint.h"
	.file 4 "../sdk/core_cm4.h"
	.file 5 "../sdk/system_stm32f4xx.h"
	.file 6 "../sdk/stm32f4xx.h"
	.file 7 "/home/pinky/msut/gcc-arm-none-eabi/arm-none-eabi/include/sys/lock.h"
	.file 8 "/home/pinky/msut/gcc-arm-none-eabi/arm-none-eabi/include/sys/_types.h"
	.file 9 "/home/pinky/msut/gcc-arm-none-eabi/lib/gcc/arm-none-eabi/7.3.1/include/stddef.h"
	.file 10 "/home/pinky/msut/gcc-arm-none-eabi/arm-none-eabi/include/sys/reent.h"
	.file 11 "usart.h"
	.file 12 "display.h"